target datalayout = "e-m:e-p270:32:32-p271:32:32-p272:64:64-i64:64-i128:128-f80:128-n8:16:32:64-S128"
target triple = "x86_64-pc-linux-gnu"

; Function Attrs: nounwind uwtable
define i64 @wcslcat(ptr noundef %0, ptr noundef %1, i64 noundef %2) #0 {
  %4 = alloca i64, align 8
  %5 = alloca ptr, align 8
  %6 = alloca ptr, align 8
  %7 = alloca i64, align 8
  %8 = alloca ptr, align 8
  %9 = alloca ptr, align 8
  %10 = alloca i64, align 8
  %11 = alloca i64, align 8
  store ptr %0, ptr %5, align 8
  store ptr %1, ptr %6, align 8
  store i64 %2, ptr %7, align 8
  %12 = load ptr, ptr %5, align 8
  store ptr %12, ptr %8, align 8
  %13 = load ptr, ptr %6, align 8
  store ptr %13, ptr %9, align 8
  %14 = load i64, ptr %7, align 8
  store i64 %14, ptr %10, align 8
  br label %15

15:                                               ; preds = %25, %3
  %16 = load i64, ptr %10, align 8
  %17 = add i64 %16, -1
  store i64 %17, ptr %10, align 8
  %18 = icmp ne i64 %16, 0
  br i1 %18, label %19, label %23

19:                                               ; preds = %15
  %20 = load ptr, ptr %8, align 8
  %21 = load i32, ptr %20, align 4
  %22 = icmp ne i32 %21, 0
  br label %23

23:                                               ; preds = %19, %15
  %24 = phi i1 [ false, %15 ], [ %22, %19 ]
  br i1 %24, label %25, label %28

25:                                               ; preds = %23
  %26 = load ptr, ptr %8, align 8
  %27 = getelementptr inbounds i32, ptr %26, i32 1
  store ptr %27, ptr %8, align 8
  br label %15, !llvm.loop !6

28:                                               ; preds = %23
  %29 = load ptr, ptr %8, align 8
  %30 = load ptr, ptr %5, align 8
  %31 = ptrtoint ptr %29 to i64
  %32 = ptrtoint ptr %30 to i64
  %33 = sub i64 %31, %32
  %34 = sdiv exact i64 %33, 4
  store i64 %34, ptr %11, align 8
  %35 = load i64, ptr %7, align 8
  %36 = load i64, ptr %11, align 8
  %37 = sub i64 %35, %36
  store i64 %37, ptr %10, align 8
  %38 = load i64, ptr %10, align 8
  %39 = icmp eq i64 %38, 0
  br i1 %39, label %40, label %45

40:                                               ; preds = %28
  %41 = load i64, ptr %11, align 8
  %42 = load ptr, ptr %9, align 8
  %43 = call i64 @wcslen(ptr noundef %42) #2
  %44 = add i64 %41, %43
  store i64 %44, ptr %4, align 8
  br label %73

45:                                               ; preds = %28
  br label %46

46:                                               ; preds = %60, %45
  %47 = load ptr, ptr %9, align 8
  %48 = load i32, ptr %47, align 4
  %49 = icmp ne i32 %48, 0
  br i1 %49, label %50, label %63

50:                                               ; preds = %46
  %51 = load i64, ptr %10, align 8
  %52 = icmp ne i64 %51, 1
  br i1 %52, label %53, label %60

53:                                               ; preds = %50
  %54 = load ptr, ptr %9, align 8
  %55 = load i32, ptr %54, align 4
  %56 = load ptr, ptr %8, align 8
  %57 = getelementptr inbounds i32, ptr %56, i32 1
  store ptr %57, ptr %8, align 8
  store i32 %55, ptr %56, align 4
  %58 = load i64, ptr %10, align 8
  %59 = add i64 %58, -1
  store i64 %59, ptr %10, align 8
  br label %60

60:                                               ; preds = %53, %50
  %61 = load ptr, ptr %9, align 8
  %62 = getelementptr inbounds i32, ptr %61, i32 1
  store ptr %62, ptr %9, align 8
  br label %46, !llvm.loop !8

63:                                               ; preds = %46
  %64 = load ptr, ptr %8, align 8
  store i32 0, ptr %64, align 4
  %65 = load i64, ptr %11, align 8
  %66 = load ptr, ptr %9, align 8
  %67 = load ptr, ptr %6, align 8
  %68 = ptrtoint ptr %66 to i64
  %69 = ptrtoint ptr %67 to i64
  %70 = sub i64 %68, %69
  %71 = sdiv exact i64 %70, 4
  %72 = add i64 %65, %71
  store i64 %72, ptr %4, align 8
  br label %73

73:                                               ; preds = %63, %40
  %74 = load i64, ptr %4, align 8
  ret i64 %74
}

; Function Attrs: nounwind willreturn memory(read)
declare i64 @wcslen(ptr noundef) #1


!llvm.module.flags = !{!0, !1, !2, !3, !4, !5}

!0 = !{i32 7, !"Dwarf Version", i32 5}
!1 = !{i32 2, !"Debug Info Version", i32 3}
!2 = !{i32 1, !"wchar_size", i32 4}
!3 = !{i32 8, !"PIC Level", i32 2}
!4 = !{i32 7, !"uwtable", i32 2}
!5 = !{i32 7, !"frame-pointer", i32 2}
!6 = distinct !{!6, !7}
!7 = !{!"llvm.loop.mustprogress"}
!8 = distinct !{!8, !7}
